; Function Attrs: mustprogress uwtable
define void @_ZN7rocksdb18SharedCleanablePtr8AllocateEv(ptr noundef nonnull align 8 captures(none) dereferenceable(8) %0) local_unnamed_addr #5 align 2 personality ptr @__gxx_personality_v0 {
  %2 = load ptr, ptr %0, align 8, !tbaa !25
  %.not.i = icmp eq ptr %2, null
  br i1 %.not.i, label %_ZN7rocksdb18SharedCleanablePtr5ResetEv.exit, label %3

3:                                                ; preds = %1
  %4 = getelementptr inbounds nuw i8, ptr %2, i64 32
  %5 = atomicrmw sub ptr %4, i32 1 monotonic, align 4
  %.not.i.i = icmp eq i32 %5, 1
  br i1 %.not.i.i, label %6, label %_ZN7rocksdb18SharedCleanablePtr4Impl5UnrefEv.exit.i

6:                                                ; preds = %3
  %7 = load ptr, ptr %2, align 8, !tbaa !4
  %.not.i.i.i.i = icmp eq ptr %7, null
  br i1 %.not.i.i.i.i, label %_ZN7rocksdb9CleanableD2Ev.exit.i.i, label %8

8:                                                ; preds = %6
  %9 = getelementptr inbounds nuw i8, ptr %2, i64 8
  %10 = load ptr, ptr %9, align 8, !tbaa !21
  %11 = getelementptr inbounds nuw i8, ptr %2, i64 16
  %12 = load ptr, ptr %11, align 8, !tbaa !22
  invoke void %7(ptr noundef %10, ptr noundef %12)
          to label %.noexc.i.i.i unwind label %.loopexit.split-lp.i.i.i

.noexc.i.i.i:                                     ; preds = %8
  %13 = getelementptr inbounds nuw i8, ptr %2, i64 24
  %14 = load ptr, ptr %13, align 8, !tbaa !11
  %.not910.i.i.i.i = icmp eq ptr %14, null
  br i1 %.not910.i.i.i.i, label %_ZN7rocksdb9CleanableD2Ev.exit.i.i, label %.lr.ph.i.i.i.i

.lr.ph.i.i.i.i:                                   ; preds = %.noexc.i.i.i, %.noexc1.i.i.i
  %.011.i.i.i.i = phi ptr [ %21, %.noexc1.i.i.i ], [ %14, %.noexc.i.i.i ]
  %15 = load ptr, ptr %.011.i.i.i.i, align 8, !tbaa !18
  %16 = getelementptr inbounds nuw i8, ptr %.011.i.i.i.i, i64 8
  %17 = load ptr, ptr %16, align 8, !tbaa !15
  %18 = getelementptr inbounds nuw i8, ptr %.011.i.i.i.i, i64 16
  %19 = load ptr, ptr %18, align 8, !tbaa !16
  invoke void %15(ptr noundef %17, ptr noundef %19)
          to label %.noexc1.i.i.i unwind label %.loopexit.i.i.i

.noexc1.i.i.i:                                    ; preds = %.lr.ph.i.i.i.i
  %20 = getelementptr inbounds nuw i8, ptr %.011.i.i.i.i, i64 24
  %21 = load ptr, ptr %20, align 8, !tbaa !17
  tail call void @_ZdlPvm(ptr noundef nonnull %.011.i.i.i.i, i64 noundef 32) #14
  %.not9.i.i.i.i = icmp eq ptr %21, null
  br i1 %.not9.i.i.i.i, label %_ZN7rocksdb9CleanableD2Ev.exit.i.i, label %.lr.ph.i.i.i.i, !llvm.loop !28

.loopexit.i.i.i:                                  ; preds = %.lr.ph.i.i.i.i
  %lpad.loopexit.i.i.i = landingpad { ptr, i32 }
          catch ptr null
  br label %22

.loopexit.split-lp.i.i.i:                         ; preds = %8
  %lpad.loopexit.split-lp.i.i.i = landingpad { ptr, i32 }
          catch ptr null
  br label %22

22:                                               ; preds = %.loopexit.split-lp.i.i.i, %.loopexit.i.i.i
  %lpad.phi.i.i.i = phi { ptr, i32 } [ %lpad.loopexit.i.i.i, %.loopexit.i.i.i ], [ %lpad.loopexit.split-lp.i.i.i, %.loopexit.split-lp.i.i.i ]
  %23 = extractvalue { ptr, i32 } %lpad.phi.i.i.i, 0
  tail call void @__clang_call_terminate(ptr %23) #12
  unreachable

_ZN7rocksdb9CleanableD2Ev.exit.i.i:               ; preds = %.noexc1.i.i.i, %.noexc.i.i.i, %6
  tail call void @_ZdlPvm(ptr noundef nonnull align 8 dereferenceable(36) %2, i64 noundef 40) #14
  br label %_ZN7rocksdb18SharedCleanablePtr4Impl5UnrefEv.exit.i

_ZN7rocksdb18SharedCleanablePtr4Impl5UnrefEv.exit.i: ; preds = %_ZN7rocksdb9CleanableD2Ev.exit.i.i, %3
  store ptr null, ptr %0, align 8, !tbaa !25
  br label %_ZN7rocksdb18SharedCleanablePtr5ResetEv.exit

_ZN7rocksdb18SharedCleanablePtr5ResetEv.exit:     ; preds = %1, %_ZN7rocksdb18SharedCleanablePtr4Impl5UnrefEv.exit.i
  %24 = tail call noalias noundef nonnull dereferenceable(40) ptr @_Znwm(i64 noundef 40) #13
  %25 = getelementptr inbounds nuw i8, ptr %24, i64 32
  tail call void @llvm.memset.p0.i64(ptr noundef nonnull align 8 dereferenceable(40) %24, i8 0, i64 40, i1 false)
  store i32 1, ptr %25, align 4, !tbaa !29
  store ptr %24, ptr %0, align 8, !tbaa !25
  ret void
}